target datalayout = "e-m:e-p270:32:32-p271:32:32-p272:64:64-i64:64-i128:128-f80:128-n8:16:32:64-S128"
target triple = "x86_64-unknown-linux-gnu"

%"class.EA::StdC::CallbackManager::CallbackVector" = type { ptr, ptr, ptr, [8 x ptr] }

; Function Attrs: mustprogress nounwind uwtable
define dso_local noundef ptr @_ZN2EA4StdC15CallbackManager14CallbackVector5eraseEPPNS0_8CallbackE(ptr noundef nonnull align 8 dereferenceable(88) %this, ptr noundef %pIterator) #1 align 2 {
entry:
  %this.addr = alloca ptr, align 8
  %pIterator.addr = alloca ptr, align 8
  %moveCount = alloca i64, align 8
  store ptr %this, ptr %this.addr, align 8
  store ptr %pIterator, ptr %pIterator.addr, align 8
  %this1 = load ptr, ptr %this.addr, align 8
  %mpEnd = getelementptr inbounds %"class.EA::StdC::CallbackManager::CallbackVector", ptr %this1, i32 0, i32 1
  %0 = load ptr, ptr %mpEnd, align 8
  %1 = load ptr, ptr %pIterator.addr, align 8
  %sub.ptr.lhs.cast = ptrtoint ptr %0 to i64
  %sub.ptr.rhs.cast = ptrtoint ptr %1 to i64
  %sub.ptr.sub = sub i64 %sub.ptr.lhs.cast, %sub.ptr.rhs.cast
  %sub.ptr.div = sdiv exact i64 %sub.ptr.sub, 8
  %sub = sub nsw i64 %sub.ptr.div, 1
  store i64 %sub, ptr %moveCount, align 8
  %2 = load ptr, ptr %pIterator.addr, align 8
  %3 = load ptr, ptr %pIterator.addr, align 8
  %add.ptr = getelementptr inbounds ptr, ptr %3, i64 1
  %4 = load i64, ptr %moveCount, align 8
  %mul = mul i64 %4, 8
  call void @llvm.memmove.p0.p0.i64(ptr align 8 %2, ptr align 8 %add.ptr, i64 %mul, i1 false)
  %mpEnd2 = getelementptr inbounds %"class.EA::StdC::CallbackManager::CallbackVector", ptr %this1, i32 0, i32 1
  %5 = load ptr, ptr %mpEnd2, align 8
  %incdec.ptr = getelementptr inbounds ptr, ptr %5, i32 -1
  store ptr %incdec.ptr, ptr %mpEnd2, align 8
  %6 = load ptr, ptr %pIterator.addr, align 8
  ret ptr %6
}