; Function Attrs: mustprogress nofree norecurse nosync nounwind willreturn memory(argmem: readwrite) uwtable
define dso_local noundef ptr @_ZN2EA4StdC15CallbackManager14CallbackVector5eraseEPPNS0_8CallbackE(ptr nocapture noundef nonnull align 8 dereferenceable(88) %this, ptr noundef returned %pIterator) local_unnamed_addr #5 align 2 {
entry:
  %mpEnd = getelementptr inbounds i8, ptr %this, i64 8
  %0 = load ptr, ptr %mpEnd, align 8
  %sub.ptr.lhs.cast = ptrtoint ptr %0 to i64
  %sub.ptr.rhs.cast = ptrtoint ptr %pIterator to i64
  %add.ptr = getelementptr inbounds i8, ptr %pIterator, i64 8
  %reass.sub = sub i64 %sub.ptr.lhs.cast, %sub.ptr.rhs.cast
  %mul = add i64 %reass.sub, -8
  tail call void @llvm.memmove.p0.p0.i64(ptr align 8 %pIterator, ptr nonnull align 8 %add.ptr, i64 %mul, i1 false)
  %1 = load ptr, ptr %mpEnd, align 8
  %incdec.ptr = getelementptr inbounds i8, ptr %1, i64 -8
  store ptr %incdec.ptr, ptr %mpEnd, align 8
  ret ptr %pIterator
}